target datalayout = "e-m:e-p270:32:32-p271:32:32-p272:64:64-i64:64-i128:128-f80:128-n8:16:32:64-S128"
target triple = "x86_64-pc-linux-gnu"

%struct.FFBitStreamFilter = type { %struct.AVBitStreamFilter, i32, ptr, ptr, ptr, ptr }
%struct.AVBitStreamFilter = type { ptr, ptr, ptr }
%struct.AVBSFContext = type { ptr, ptr, ptr, ptr, ptr, %struct.AVRational, %struct.AVRational }
%struct.AVRational = type { i32, i32 }
%struct.AVCodecParameters = type { i32, i32, i32, ptr, i32, ptr, i32, i32, i64, i32, i32, i32, i32, i32, i32, %struct.AVRational, %struct.AVRational, i32, i32, i32, i32, i32, i32, i32, %struct.AVChannelLayout, i32, i32, i32, i32, i32, i32 }
%struct.AVChannelLayout = type { i32, i32, %union.anon, ptr }
%union.anon = type { i64 }
%struct.AVCodecDescriptor = type { i32, i32, ptr, ptr, i32, ptr, ptr }

@.str = private unnamed_addr constant [86 x i8] c"Codec '%s' (%d) is not supported by the bitstream filter '%s'. Supported codecs are: \00", align 1
@.str.1 = private unnamed_addr constant [8 x i8] c"unknown\00", align 1
@.str.2 = private unnamed_addr constant [9 x i8] c"%s (%d) \00", align 1
@.str.3 = private unnamed_addr constant [2 x i8] c"\0A\00", align 1

; Function Attrs: alwaysinline nounwind uwtable
define internal ptr @ff_bsf(ptr noundef %0) #2 {
  %2 = alloca ptr, align 8
  store ptr %0, ptr %2, align 8, !tbaa !27
  %3 = load ptr, ptr %2, align 8, !tbaa !27
  ret ptr %3
}

; Function Attrs: nounwind uwtable
define i32 @av_bsf_init(ptr noundef %0) #0 {
  %2 = alloca i32, align 4
  %3 = alloca ptr, align 8
  %4 = alloca i32, align 4
  %5 = alloca i32, align 4
  %6 = alloca ptr, align 8
  %7 = alloca i32, align 4
  %8 = alloca i32, align 4
  store ptr %0, ptr %3, align 8, !tbaa !10
  call void @llvm.lifetime.start.p0(i64 4, ptr %4) #6
  call void @llvm.lifetime.start.p0(i64 4, ptr %5) #6
  %9 = load ptr, ptr %3, align 8, !tbaa !10
  %10 = getelementptr inbounds nuw %struct.AVBSFContext, ptr %9, i32 0, i32 1
  %11 = load ptr, ptr %10, align 8, !tbaa !21
  %12 = getelementptr inbounds nuw %struct.AVBitStreamFilter, ptr %11, i32 0, i32 1
  %13 = load ptr, ptr %12, align 8, !tbaa !37
  %14 = icmp ne ptr %13, null
  br i1 %14, label %15, label %117

15:                                               ; preds = %1
  store i32 0, ptr %5, align 4, !tbaa !31
  br label %16

16:                                               ; preds = %45, %15
  %17 = load ptr, ptr %3, align 8, !tbaa !10
  %18 = getelementptr inbounds nuw %struct.AVBSFContext, ptr %17, i32 0, i32 1
  %19 = load ptr, ptr %18, align 8, !tbaa !21
  %20 = getelementptr inbounds nuw %struct.AVBitStreamFilter, ptr %19, i32 0, i32 1
  %21 = load ptr, ptr %20, align 8, !tbaa !37
  %22 = load i32, ptr %5, align 4, !tbaa !31
  %23 = sext i32 %22 to i64
  %24 = getelementptr inbounds i32, ptr %21, i64 %23
  %25 = load i32, ptr %24, align 4, !tbaa !31
  %26 = icmp ne i32 %25, 0
  br i1 %26, label %27, label %48

27:                                               ; preds = %16
  %28 = load ptr, ptr %3, align 8, !tbaa !10
  %29 = getelementptr inbounds nuw %struct.AVBSFContext, ptr %28, i32 0, i32 3
  %30 = load ptr, ptr %29, align 8, !tbaa !29
  %31 = getelementptr inbounds nuw %struct.AVCodecParameters, ptr %30, i32 0, i32 1
  %32 = load i32, ptr %31, align 4, !tbaa !38
  %33 = load ptr, ptr %3, align 8, !tbaa !10
  %34 = getelementptr inbounds nuw %struct.AVBSFContext, ptr %33, i32 0, i32 1
  %35 = load ptr, ptr %34, align 8, !tbaa !21
  %36 = getelementptr inbounds nuw %struct.AVBitStreamFilter, ptr %35, i32 0, i32 1
  %37 = load ptr, ptr %36, align 8, !tbaa !37
  %38 = load i32, ptr %5, align 4, !tbaa !31
  %39 = sext i32 %38 to i64
  %40 = getelementptr inbounds i32, ptr %37, i64 %39
  %41 = load i32, ptr %40, align 4, !tbaa !31
  %42 = icmp eq i32 %32, %41
  br i1 %42, label %43, label %44

43:                                               ; preds = %27
  br label %48

44:                                               ; preds = %27
  br label %45

45:                                               ; preds = %44
  %46 = load i32, ptr %5, align 4, !tbaa !31
  %47 = add nsw i32 %46, 1
  store i32 %47, ptr %5, align 4, !tbaa !31
  br label %16, !llvm.loop !43

48:                                               ; preds = %43, %16
  %49 = load ptr, ptr %3, align 8, !tbaa !10
  %50 = getelementptr inbounds nuw %struct.AVBSFContext, ptr %49, i32 0, i32 1
  %51 = load ptr, ptr %50, align 8, !tbaa !21
  %52 = getelementptr inbounds nuw %struct.AVBitStreamFilter, ptr %51, i32 0, i32 1
  %53 = load ptr, ptr %52, align 8, !tbaa !37
  %54 = load i32, ptr %5, align 4, !tbaa !31
  %55 = sext i32 %54 to i64
  %56 = getelementptr inbounds i32, ptr %53, i64 %55
  %57 = load i32, ptr %56, align 4, !tbaa !31
  %58 = icmp eq i32 %57, 0
  br i1 %58, label %59, label %116

59:                                               ; preds = %48
  call void @llvm.lifetime.start.p0(i64 8, ptr %6) #6
  %60 = load ptr, ptr %3, align 8, !tbaa !10
  %61 = getelementptr inbounds nuw %struct.AVBSFContext, ptr %60, i32 0, i32 3
  %62 = load ptr, ptr %61, align 8, !tbaa !29
  %63 = getelementptr inbounds nuw %struct.AVCodecParameters, ptr %62, i32 0, i32 1
  %64 = load i32, ptr %63, align 4, !tbaa !38
  %65 = call ptr @avcodec_descriptor_get(i32 noundef %64)
  store ptr %65, ptr %6, align 8, !tbaa !45
  %66 = load ptr, ptr %3, align 8, !tbaa !10
  %67 = load ptr, ptr %6, align 8, !tbaa !45
  %68 = icmp ne ptr %67, null
  br i1 %68, label %69, label %73

69:                                               ; preds = %59
  %70 = load ptr, ptr %6, align 8, !tbaa !45
  %71 = getelementptr inbounds nuw %struct.AVCodecDescriptor, ptr %70, i32 0, i32 2
  %72 = load ptr, ptr %71, align 8, !tbaa !47
  br label %74

73:                                               ; preds = %59
  br label %74

74:                                               ; preds = %73, %69
  %75 = phi ptr [ %72, %69 ], [ @.str.1, %73 ]
  %76 = load ptr, ptr %3, align 8, !tbaa !10
  %77 = getelementptr inbounds nuw %struct.AVBSFContext, ptr %76, i32 0, i32 3
  %78 = load ptr, ptr %77, align 8, !tbaa !29
  %79 = getelementptr inbounds nuw %struct.AVCodecParameters, ptr %78, i32 0, i32 1
  %80 = load i32, ptr %79, align 4, !tbaa !38
  %81 = load ptr, ptr %3, align 8, !tbaa !10
  %82 = getelementptr inbounds nuw %struct.AVBSFContext, ptr %81, i32 0, i32 1
  %83 = load ptr, ptr %82, align 8, !tbaa !21
  %84 = getelementptr inbounds nuw %struct.AVBitStreamFilter, ptr %83, i32 0, i32 0
  %85 = load ptr, ptr %84, align 8, !tbaa !51
  call void (ptr, i32, ptr, ...) @av_log(ptr noundef %66, i32 noundef 16, ptr noundef @.str, ptr noundef %75, i32 noundef %80, ptr noundef %85)
  store i32 0, ptr %5, align 4, !tbaa !31
  br label %86

86:                                               ; preds = %111, %74
  %87 = load ptr, ptr %3, align 8, !tbaa !10
  %88 = getelementptr inbounds nuw %struct.AVBSFContext, ptr %87, i32 0, i32 1
  %89 = load ptr, ptr %88, align 8, !tbaa !21
  %90 = getelementptr inbounds nuw %struct.AVBitStreamFilter, ptr %89, i32 0, i32 1
  %91 = load ptr, ptr %90, align 8, !tbaa !37
  %92 = load i32, ptr %5, align 4, !tbaa !31
  %93 = sext i32 %92 to i64
  %94 = getelementptr inbounds i32, ptr %91, i64 %93
  %95 = load i32, ptr %94, align 4, !tbaa !31
  %96 = icmp ne i32 %95, 0
  br i1 %96, label %97, label %114

97:                                               ; preds = %86
  call void @llvm.lifetime.start.p0(i64 4, ptr %7) #6
  %98 = load ptr, ptr %3, align 8, !tbaa !10
  %99 = getelementptr inbounds nuw %struct.AVBSFContext, ptr %98, i32 0, i32 1
  %100 = load ptr, ptr %99, align 8, !tbaa !21
  %101 = getelementptr inbounds nuw %struct.AVBitStreamFilter, ptr %100, i32 0, i32 1
  %102 = load ptr, ptr %101, align 8, !tbaa !37
  %103 = load i32, ptr %5, align 4, !tbaa !31
  %104 = sext i32 %103 to i64
  %105 = getelementptr inbounds i32, ptr %102, i64 %104
  %106 = load i32, ptr %105, align 4, !tbaa !31
  store i32 %106, ptr %7, align 4, !tbaa !31
  %107 = load ptr, ptr %3, align 8, !tbaa !10
  %108 = load i32, ptr %7, align 4, !tbaa !31
  %109 = call ptr @avcodec_get_name(i32 noundef %108)
  %110 = load i32, ptr %7, align 4, !tbaa !31
  call void (ptr, i32, ptr, ...) @av_log(ptr noundef %107, i32 noundef 16, ptr noundef @.str.2, ptr noundef %109, i32 noundef %110)
  call void @llvm.lifetime.end.p0(i64 4, ptr %7) #6
  br label %111

111:                                              ; preds = %97
  %112 = load i32, ptr %5, align 4, !tbaa !31
  %113 = add nsw i32 %112, 1
  store i32 %113, ptr %5, align 4, !tbaa !31
  br label %86, !llvm.loop !52

114:                                              ; preds = %86
  %115 = load ptr, ptr %3, align 8, !tbaa !10
  call void (ptr, i32, ptr, ...) @av_log(ptr noundef %115, i32 noundef 16, ptr noundef @.str.3)
  store i32 -22, ptr %2, align 4
  store i32 1, ptr %8, align 4
  call void @llvm.lifetime.end.p0(i64 8, ptr %6) #6
  br label %156

116:                                              ; preds = %48
  br label %117

117:                                              ; preds = %116, %1
  %118 = load ptr, ptr %3, align 8, !tbaa !10
  %119 = getelementptr inbounds nuw %struct.AVBSFContext, ptr %118, i32 0, i32 4
  %120 = load ptr, ptr %119, align 8, !tbaa !30
  %121 = load ptr, ptr %3, align 8, !tbaa !10
  %122 = getelementptr inbounds nuw %struct.AVBSFContext, ptr %121, i32 0, i32 3
  %123 = load ptr, ptr %122, align 8, !tbaa !29
  %124 = call i32 @avcodec_parameters_copy(ptr noundef %120, ptr noundef %123)
  store i32 %124, ptr %4, align 4, !tbaa !31
  %125 = load i32, ptr %4, align 4, !tbaa !31
  %126 = icmp slt i32 %125, 0
  br i1 %126, label %127, label %129

127:                                              ; preds = %117
  %128 = load i32, ptr %4, align 4, !tbaa !31
  store i32 %128, ptr %2, align 4
  store i32 1, ptr %8, align 4
  br label %156

129:                                              ; preds = %117
  %130 = load ptr, ptr %3, align 8, !tbaa !10
  %131 = getelementptr inbounds nuw %struct.AVBSFContext, ptr %130, i32 0, i32 6
  %132 = load ptr, ptr %3, align 8, !tbaa !10
  %133 = getelementptr inbounds nuw %struct.AVBSFContext, ptr %132, i32 0, i32 5
  call void @llvm.memcpy.p0.p0.i64(ptr align 8 %131, ptr align 8 %133, i64 8, i1 false), !tbaa.struct !53
  %134 = load ptr, ptr %3, align 8, !tbaa !10
  %135 = getelementptr inbounds nuw %struct.AVBSFContext, ptr %134, i32 0, i32 1
  %136 = load ptr, ptr %135, align 8, !tbaa !21
  %137 = call ptr @ff_bsf(ptr noundef %136)
  %138 = getelementptr inbounds nuw %struct.FFBitStreamFilter, ptr %137, i32 0, i32 2
  %139 = load ptr, ptr %138, align 8, !tbaa !54
  %140 = icmp ne ptr %139, null
  br i1 %140, label %141, label %155

141:                                              ; preds = %129
  %142 = load ptr, ptr %3, align 8, !tbaa !10
  %143 = getelementptr inbounds nuw %struct.AVBSFContext, ptr %142, i32 0, i32 1
  %144 = load ptr, ptr %143, align 8, !tbaa !21
  %145 = call ptr @ff_bsf(ptr noundef %144)
  %146 = getelementptr inbounds nuw %struct.FFBitStreamFilter, ptr %145, i32 0, i32 2
  %147 = load ptr, ptr %146, align 8, !tbaa !54
  %148 = load ptr, ptr %3, align 8, !tbaa !10
  %149 = call i32 %147(ptr noundef %148)
  store i32 %149, ptr %4, align 4, !tbaa !31
  %150 = load i32, ptr %4, align 4, !tbaa !31
  %151 = icmp slt i32 %150, 0
  br i1 %151, label %152, label %154

152:                                              ; preds = %141
  %153 = load i32, ptr %4, align 4, !tbaa !31
  store i32 %153, ptr %2, align 4
  store i32 1, ptr %8, align 4
  br label %156

154:                                              ; preds = %141
  br label %155

155:                                              ; preds = %154, %129
  store i32 0, ptr %2, align 4
  store i32 1, ptr %8, align 4
  br label %156

156:                                              ; preds = %155, %152, %127, %114
  call void @llvm.lifetime.end.p0(i64 4, ptr %5) #6
  call void @llvm.lifetime.end.p0(i64 4, ptr %4) #6
  %157 = load i32, ptr %2, align 4
  ret i32 %157
}