; Function Attrs: nounwind uwtable
define range(i32 -2147483648, 1) i32 @av_bsf_init(ptr noundef %0) local_unnamed_addr #0 {
  %2 = getelementptr inbounds nuw i8, ptr %0, i64 8
  %3 = load ptr, ptr %2, align 8, !tbaa !16
  %4 = getelementptr inbounds nuw i8, ptr %3, i64 8
  %5 = load ptr, ptr %4, align 8, !tbaa !30
  %.not = icmp eq ptr %5, null
  br i1 %.not, label %..loopexit_crit_edge, label %.preheader

..loopexit_crit_edge:                             ; preds = %1
  %.phi.trans.insert58 = getelementptr inbounds nuw i8, ptr %0, i64 24
  %.pre59 = load ptr, ptr %.phi.trans.insert58, align 8, !tbaa !23
  br label %.loopexit

.preheader:                                       ; preds = %1
  %6 = load i32, ptr %5, align 4, !tbaa !31
  %.not4145 = icmp eq i32 %6, 0
  %.phi.trans.insert = getelementptr inbounds nuw i8, ptr %0, i64 24
  %.pre = load ptr, ptr %.phi.trans.insert, align 8, !tbaa !23
  %.phi.trans.insert56 = getelementptr inbounds nuw i8, ptr %.pre, i64 4
  %.pre57 = load i32, ptr %.phi.trans.insert56, align 4, !tbaa !32
  br i1 %.not4145, label %._crit_edge, label %.lr.ph

7:                                                ; preds = %.lr.ph
  %indvars.iv.next = add nuw nsw i64 %indvars.iv, 1
  %8 = getelementptr inbounds nuw i32, ptr %5, i64 %indvars.iv.next
  %9 = load i32, ptr %8, align 4, !tbaa !31
  %.not41 = icmp eq i32 %9, 0
  br i1 %.not41, label %._crit_edge, label %.lr.ph, !llvm.loop !37

.lr.ph:                                           ; preds = %.preheader, %7
  %indvars.iv = phi i64 [ %indvars.iv.next, %7 ], [ 0, %.preheader ]
  %10 = phi i32 [ %9, %7 ], [ %6, %.preheader ]
  %11 = icmp eq i32 %.pre57, %10
  br i1 %11, label %.loopexit, label %7

._crit_edge:                                      ; preds = %7, %.preheader
  %12 = getelementptr inbounds nuw i8, ptr %0, i64 24
  %13 = tail call ptr @avcodec_descriptor_get(i32 noundef %.pre57) #6
  %.not43 = icmp eq ptr %13, null
  br i1 %.not43, label %17, label %14

14:                                               ; preds = %._crit_edge
  %15 = getelementptr inbounds nuw i8, ptr %13, i64 8
  %16 = load ptr, ptr %15, align 8, !tbaa !39
  br label %17

17:                                               ; preds = %._crit_edge, %14
  %18 = phi ptr [ %16, %14 ], [ @.str.1, %._crit_edge ]
  %19 = load ptr, ptr %12, align 8, !tbaa !23
  %20 = getelementptr inbounds nuw i8, ptr %19, i64 4
  %21 = load i32, ptr %20, align 4, !tbaa !32
  %22 = load ptr, ptr %2, align 8, !tbaa !16
  %23 = load ptr, ptr %22, align 8, !tbaa !44
  tail call void (ptr, i32, ptr, ...) @av_log(ptr noundef nonnull %0, i32 noundef 16, ptr noundef nonnull @.str, ptr noundef %18, i32 noundef %21, ptr noundef %23) #6
  %24 = load ptr, ptr %2, align 8, !tbaa !16
  %25 = getelementptr inbounds nuw i8, ptr %24, i64 8
  %26 = load ptr, ptr %25, align 8, !tbaa !30
  %27 = load i32, ptr %26, align 4, !tbaa !31
  %.not4447 = icmp eq i32 %27, 0
  br i1 %.not4447, label %._crit_edge51, label %.lr.ph50

.lr.ph50:                                         ; preds = %17, %.lr.ph50
  %indvars.iv53 = phi i64 [ %indvars.iv.next54, %.lr.ph50 ], [ 0, %17 ]
  %28 = phi i32 [ %34, %.lr.ph50 ], [ %27, %17 ]
  %29 = tail call ptr @avcodec_get_name(i32 noundef %28) #6
  tail call void (ptr, i32, ptr, ...) @av_log(ptr noundef nonnull %0, i32 noundef 16, ptr noundef nonnull @.str.2, ptr noundef %29, i32 noundef %28) #6
  %indvars.iv.next54 = add nuw nsw i64 %indvars.iv53, 1
  %30 = load ptr, ptr %2, align 8, !tbaa !16
  %31 = getelementptr inbounds nuw i8, ptr %30, i64 8
  %32 = load ptr, ptr %31, align 8, !tbaa !30
  %33 = getelementptr inbounds nuw i32, ptr %32, i64 %indvars.iv.next54
  %34 = load i32, ptr %33, align 4, !tbaa !31
  %.not44 = icmp eq i32 %34, 0
  br i1 %.not44, label %._crit_edge51, label %.lr.ph50, !llvm.loop !45

._crit_edge51:                                    ; preds = %.lr.ph50, %17
  tail call void (ptr, i32, ptr, ...) @av_log(ptr noundef nonnull %0, i32 noundef 16, ptr noundef nonnull @.str.3) #6
  br label %51

.loopexit:                                        ; preds = %.lr.ph, %..loopexit_crit_edge
  %35 = phi ptr [ %.pre59, %..loopexit_crit_edge ], [ %.pre, %.lr.ph ]
  %36 = getelementptr inbounds nuw i8, ptr %0, i64 32
  %37 = load ptr, ptr %36, align 8, !tbaa !24
  %38 = tail call i32 @avcodec_parameters_copy(ptr noundef %37, ptr noundef %35) #6
  %39 = icmp slt i32 %38, 0
  br i1 %39, label %51, label %40

40:                                               ; preds = %.loopexit
  %41 = getelementptr inbounds nuw i8, ptr %0, i64 48
  %42 = getelementptr inbounds nuw i8, ptr %0, i64 40
  %43 = load i64, ptr %42, align 8
  store i64 %43, ptr %41, align 8
  %44 = load ptr, ptr %2, align 8, !tbaa !16
  %45 = getelementptr inbounds nuw i8, ptr %44, i64 32
  %46 = load ptr, ptr %45, align 8, !tbaa !46
  %.not42 = icmp eq ptr %46, null
  br i1 %.not42, label %50, label %47

47:                                               ; preds = %40
  %48 = tail call i32 %46(ptr noundef nonnull %0) #6
  %49 = icmp slt i32 %48, 0
  br i1 %49, label %51, label %50

50:                                               ; preds = %47, %40
  br label %51

51:                                               ; preds = %47, %.loopexit, %50, %._crit_edge51
  %.0 = phi i32 [ -22, %._crit_edge51 ], [ 0, %50 ], [ %38, %.loopexit ], [ %48, %47 ]
  ret i32 %.0
}